; Function Attrs: nounwind uwtable
define hidden ptr @aom_codec_get_frame(ptr noundef readonly %0, ptr noundef %1) local_unnamed_addr #0 {
  %3 = icmp ne ptr %0, null
  %4 = icmp ne ptr %1, null
  %or.cond = and i1 %3, %4
  br i1 %or.cond, label %5, label %15

5:                                                ; preds = %2
  %6 = getelementptr inbounds nuw i8, ptr %0, i64 8
  %7 = load ptr, ptr %6, align 8
  %.not = icmp eq ptr %7, null
  br i1 %.not, label %15, label %8

8:                                                ; preds = %5
  %9 = getelementptr inbounds nuw i8, ptr %0, i64 48
  %10 = load ptr, ptr %9, align 8
  %.not12 = icmp eq ptr %10, null
  br i1 %.not12, label %15, label %11

11:                                               ; preds = %8
  %12 = getelementptr inbounds i8, ptr %7, i64 72
  %13 = load ptr, ptr %12, align 8
  %14 = tail call ptr %13(ptr noundef nonnull %10, ptr noundef nonnull %1) #3
  br label %15

15:                                               ; preds = %2, %5, %8, %11
  %.0 = phi ptr [ %14, %11 ], [ null, %8 ], [ null, %5 ], [ null, %2 ]
  ret ptr %.0
}